; Function Attrs: alwaysinline norecurse nounwind uwtable
define internal void @_ZL11orderVectorIN3gmx11BasicVectorIfEEEvNS0_8ArrayRefIK12gmx_cgsort_tEENS3_IT_EES7_S8_.omp_outlined(ptr noalias noundef readonly captures(none) %0, ptr noalias readnone captures(none) %1, ptr noundef nonnull readonly align 8 captures(none) dereferenceable(16) %2, ptr noundef nonnull readonly align 8 captures(none) dereferenceable(16) %3, ptr noundef nonnull readonly align 8 captures(none) dereferenceable(16) %4, ptr noundef nonnull readonly align 4 captures(none) dereferenceable(12) %5) #19 personality ptr @__gxx_personality_v0 {
  %7 = alloca i64, align 8
  %8 = alloca i64, align 8
  %9 = alloca i64, align 8
  %10 = alloca i32, align 4
  %11 = getelementptr inbounds nuw i8, ptr %2, i64 8
  %.sroa.0.0.copyload.i.i = load ptr, ptr %2, align 8
  %12 = load ptr, ptr %11, align 8, !tbaa !805
  %13 = ptrtoint ptr %12 to i64
  %14 = ptrtoint ptr %.sroa.0.0.copyload.i.i to i64
  %15 = sub i64 %13, %14
  %16 = ashr exact i64 %15, 2
  %17 = icmp sgt i64 %16, 0
  br i1 %17, label %18, label %37

18:                                               ; preds = %6
  %19 = add nsw i64 %16, -1
  call void @llvm.lifetime.start.p0(i64 8, ptr nonnull %7) #20
  store i64 0, ptr %7, align 8, !tbaa !232
  call void @llvm.lifetime.start.p0(i64 8, ptr nonnull %8) #20
  store i64 %19, ptr %8, align 8, !tbaa !232
  call void @llvm.lifetime.start.p0(i64 8, ptr nonnull %9) #20
  store i64 1, ptr %9, align 8, !tbaa !232
  call void @llvm.lifetime.start.p0(i64 4, ptr nonnull %10) #20
  store i32 0, ptr %10, align 4, !tbaa !208
  %20 = load i32, ptr %0, align 4, !tbaa !208
  call void @__kmpc_for_static_init_8(ptr nonnull @1, i32 %20, i32 34, ptr nonnull %10, ptr nonnull %7, ptr nonnull %8, ptr nonnull %9, i64 1, i64 1)
  %21 = load i64, ptr %8, align 8, !tbaa !232
  %22 = call i64 @llvm.smin.i64(i64 %21, i64 %19)
  store i64 %22, ptr %8, align 8, !tbaa !232
  %23 = load i64, ptr %7, align 8, !tbaa !232
  %.not17 = icmp sgt i64 %23, %22
  br i1 %.not17, label %._crit_edge, label %.lr.ph

.lr.ph:                                           ; preds = %18, %.lr.ph
  %.018 = phi i64 [ %36, %.lr.ph ], [ %23, %18 ]
  %24 = load i64, ptr %2, align 8
  %25 = inttoptr i64 %24 to ptr
  %26 = getelementptr inbounds %struct.gmx_cgsort_t, ptr %25, i64 %.018
  %27 = load i32, ptr %26, align 4, !tbaa !539
  %28 = zext nneg i32 %27 to i64
  %29 = load i64, ptr %4, align 8
  %30 = inttoptr i64 %29 to ptr
  %31 = getelementptr inbounds nuw %"class.gmx::BasicVector.14", ptr %30, i64 %28
  %32 = icmp slt i32 %27, 0
  %.sink19 = select i1 %32, ptr %5, ptr %31
  %33 = load i64, ptr %3, align 8
  %34 = inttoptr i64 %33 to ptr
  %35 = getelementptr inbounds %"class.gmx::BasicVector.14", ptr %34, i64 %.018
  call void @llvm.memcpy.p0.p0.i64(ptr noundef nonnull align 4 dereferenceable(12) %35, ptr noundef nonnull align 4 dereferenceable(12) %.sink19, i64 12, i1 false)
  %36 = add i64 %.018, 1
  %exitcond.not = icmp eq i64 %.018, %22
  br i1 %exitcond.not, label %._crit_edge, label %.lr.ph

._crit_edge:                                      ; preds = %.lr.ph, %18
  call void @__kmpc_for_static_fini(ptr nonnull @1, i32 %20)
  call void @llvm.lifetime.end.p0(i64 4, ptr nonnull %10) #20
  call void @llvm.lifetime.end.p0(i64 8, ptr nonnull %9) #20
  call void @llvm.lifetime.end.p0(i64 8, ptr nonnull %8) #20
  call void @llvm.lifetime.end.p0(i64 8, ptr nonnull %7) #20
  br label %37

37:                                               ; preds = %._crit_edge, %6
  ret void
}